; Function Attrs: mustprogress nofree norecurse nosync nounwind willreturn memory(readwrite, argmem: write, inaccessiblemem: none) uwtable
define hidden void @_ZN12ZStatSamplerC2EPKcS1_PFv15LogTargetHandleRKS_RK19ZStatSamplerHistoryE(ptr noundef nonnull align 8 dereferenceable(40) %0, ptr noundef %1, ptr noundef %2, ptr noundef %3) unnamed_addr #3 align 2 {
  %5 = load i32, ptr @_ZN18ZStatIterableValueI12ZStatSamplerE6_countE, align 4
  %6 = add i32 %5, 1
  store i32 %6, ptr @_ZN18ZStatIterableValueI12ZStatSamplerE6_countE, align 4
  store ptr %1, ptr %0, align 8
  %7 = getelementptr inbounds i8, ptr %0, i64 8
  store ptr %2, ptr %7, align 8
  %8 = getelementptr inbounds i8, ptr %0, i64 16
  store i32 %5, ptr %8, align 8
  %9 = getelementptr inbounds i8, ptr %0, i64 20
  %10 = load i32, ptr @_ZN10ZStatValue11_cpu_offsetE, align 4
  store i32 %10, ptr %9, align 4
  %11 = add i32 %10, 24
  store i32 %11, ptr @_ZN10ZStatValue11_cpu_offsetE, align 4
  %12 = getelementptr inbounds i8, ptr %0, i64 24
  %13 = load ptr, ptr @_ZN18ZStatIterableValueI12ZStatSamplerE6_firstE, align 8
  store ptr %0, ptr @_ZN18ZStatIterableValueI12ZStatSamplerE6_firstE, align 8
  store ptr %13, ptr %12, align 8
  %14 = getelementptr inbounds i8, ptr %0, i64 32
  store ptr %3, ptr %14, align 8
  ret void
}